Certificate:
    Data:
        Version: 1 (0x0)
        Serial Number: 4101 (0x1005)
        Signature Algorithm: sha256WithRSAEncryption
        Issuer: CN=Root-CA
        Validity
            Not Before: Jun 25 06:56:54 2021 GMT
            Not After : Jun 23 06:56:54 2031 GMT
        Subject: C=BG, ST=SF, O=iFAO, CN=notify.ccbd
        Subject Public Key Info:
            Public Key Algorithm: rsaEncryption
                RSA Public-Key: (2048 bit)
                Modulus:
                    00:a0:31:80:d0:50:08:56:2f:11:62:58:8b:81:e2:
                    da:c1:40:3b:94:ea:d5:90:b5:6d:20:e0:81:a7:d0:
                    26:05:39:4a:c7:f5:4f:18:fe:38:70:c9:f8:19:a1:
                    29:13:a8:a3:b1:a4:d0:53:c5:d6:18:0b:89:fd:2e:
                    98:72:45:bf:db:cf:bc:89:e3:a4:03:44:8e:c5:04:
                    79:2e:7d:68:31:85:3b:0e:b9:59:ed:06:15:b0:35:
                    48:0e:d2:89:b5:fd:50:7b:72:f2:04:76:3d:26:c3:
                    fd:14:7f:9d:9c:9c:90:77:4f:55:61:20:48:f6:53:
                    c0:72:d3:a3:aa:1a:68:ca:08:97:68:e6:3e:42:3e:
                    30:32:e2:ee:36:8d:32:6e:52:cc:e3:91:50:46:85:
                    cd:f6:cd:cc:53:da:f4:5c:80:01:5a:c9:6a:e5:1a:
                    57:91:29:cb:d1:5a:a7:be:30:16:59:f1:ff:e2:4f:
                    88:78:41:e6:49:b6:2c:4e:a5:ec:cc:bb:c8:f6:8b:
                    0b:01:0a:7b:59:8b:93:96:57:75:b0:56:c9:67:7b:
                    09:42:45:ab:b5:a7:d8:90:3e:df:e4:19:91:53:5b:
                    9e:28:c6:10:41:48:e3:17:e1:a9:61:c9:bc:7c:fa:
                    21:88:01:06:b6:99:dd:3b:e9:60:0f:93:a9:ec:31:
                    65:a3
                Exponent: 65537 (0x10001)
    Signature Algorithm: sha256WithRSAEncryption
         49:60:43:1d:98:ce:01:db:65:6b:c9:9e:33:02:49:08:49:77:
         71:f9:cd:f3:51:62:af:c4:12:fa:b0:12:4e:b6:b3:f7:1a:de:
         07:9d:94:28:2d:b9:b0:42:c6:1f:96:76:01:c4:5a:93:9e:7e:
         95:87:03:35:95:21:fe:ba:5c:c6:78:8d:fa:24:07:71:1c:c5:
         33:2f:4d:c6:73:77:77:c8:5d:0e:82:2c:a2:d1:58:c3:8a:18:
         b7:b0:96:4b:85:c6:a5:89:0d:63:c4:f6:64:81:a0:06:a0:0e:
         68:28:89:56:c8:7c:15:ab:fe:8d:f9:d5:57:da:3a:be:f6:45:
         0b:02:43:48:27:75:8a:44:3f:ad:4f:ed:c4:78:84:98:1e:82:
         df:86:c0:02:9b:5b:1a:08:c0:37:8e:0d:1b:34:61:95:27:33:
         1f:38:c3:42:1d:86:07:57:a9:76:f5:b7:36:da:43:d3:2c:73:
         18:91:a5:9a:43:76:e3:d6:d7:bb:25:9e:9f:e5:ab:44:d2:09:
         4f:af:e8:cc:8c:63:92:77:61:1f:38:36:99:ed:fe:aa:59:66:
         ad:38:54:5d:72:8b:ed:56:30:3f:c4:cf:40:31:2f:8b:a9:f2:
         89:96:37:64:e3:9c:ee:9c:42:2f:41:00:b5:62:17:c3:08:d3:
         00:51:71:43
-----BEGIN CERTIFICATE-----
MIICxjCCAa4CAhAFMA0GCSqGSIb3DQEBCwUAMBIxEDAOBgNVBAMMB1Jvb3QtQ0Ew
HhcNMjEwNjI1MDY1NjU0WhcNMzEwNjIzMDY1NjU0WjA/MQswCQYDVQQGEwJCRzEL
MAkGA1UECAwCU0YxDTALBgNVBAoMBGlGQU8xFDASBgNVBAMMC25vdGlmeS5jY2Jk
MIIBIjANBgkqhkiG9w0BAQEFAAOCAQ8AMIIBCgKCAQEAoDGA0FAIVi8RYliLgeLa
wUA7lOrVkLVtIOCBp9AmBTlKx/VPGP44cMn4GaEpE6ijsaTQU8XWGAuJ/S6YckW/
28+8ieOkA0SOxQR5Ln1oMYU7DrlZ7QYVsDVIDtKJtf1Qe3LyBHY9JsP9FH+dnJyQ
d09VYSBI9lPActOjqhpoygiXaOY+Qj4wMuLuNo0yblLM45FQRoXN9s3MU9r0XIAB
Wslq5RpXkSnL0VqnvjAWWfH/4k+IeEHmSbYsTqXszLvI9osLAQp7WYuTlld1sFbJ
Z3sJQkWrtafYkD7f5BmRU1ueKMYQQUjjF+GpYcm8fPohiAEGtpndO+lgD5Op7DFl
owIDAQABMA0GCSqGSIb3DQEBCwUAA4IBAQBJYEMdmM4B22VryZ4zAkkISXdx+c3z
UWKvxBL6sBJOtrP3Gt4HnZQoLbmwQsYflnYBxFqTnn6VhwM1lSH+ulzGeI36JAdx
HMUzL03Gc3d3yF0Ogiyi0VjDihi3sJZLhcaliQ1jxPZkgaAGoA5oKIlWyHwVq/6N
+dVX2jq+9kULAkNIJ3WKRD+tT+3EeISYHoLfhsACm1saCMA3jg0bNGGVJzMfOMNC
HYYHV6l29bc22kPTLHMYkaWaQ3bj1te7JZ6f5atE0glPr+jMjGOSd2EfODaZ7f6q
WWatOFRdcovtVjA/xM9AMS+LqfKJljdk45zunEIvQQC1YhfDCNMAUXFD
-----END CERTIFICATE-----
-----BEGIN CERTIFICATE-----
MIICwjCCAaqgAwIBAgIUYcmSn9FNzN692JfgzkY4fmZ38AUwDQYJKoZIhvcNAQEL
BQAwEjEQMA4GA1UEAwwHUm9vdC1DQTAeFw0yMTA2MDgxNDE0MjJaFw0zMTA2MDYx
NDE0MjJaMBIxEDAOBgNVBAMMB1Jvb3QtQ0EwggEiMA0GCSqGSIb3DQEBAQUAA4IB
DwAwggEKAoIBAQDLOnRobhFccxWa8Y5n8OBci8c8viKnDb0cZ1brJijHbcA1skju
xAp8yUXwxQWq2Aul6y4DGd+At58G270fy0TOXD+Pq81ffLYj4g4HX+s70KS1Fxt5
Txj7FromYTnWeGDwkulay2tCYa13MbtMiL1TrXcTXFCoax1WDOWIgHRi7VQd4roQ
fSxciy6UtJqzX8D1CqUk5wQNO8Ij/jLWhyOnl9umA10Zu4c8TE9rRAu/Jw6ULJ3z
rgqoMl54CKt1vlM6satE57pN7Z2HFAAoEx4QUlSpKHc4nU6OuzQlC1vLdQfk7aki
XTNfWUUHbVN4qh/pB+Vk1CEeSE35qunsip3TAgMBAAGjEDAOMAwGA1UdEwQFMAMB
Af8wDQYJKoZIhvcNAQELBQADggEBAKFNDjE1JZ7yZG1nld7vz8OWAb2XAtS1NKi1
/EOUaoGS3NdzKsWGobVRKyyF1itdJUpdFlrbAuUrSh370LBkmRvvKzzAChNSFHec
5Die+D5t/EciHrbJVvilj80hSU1P5dgyxHA88y6Je4XSdFdivfppYDGTQYdK2a4V
o02Lg8ENGjLFXnVlEugBhyoaRzZuub2OM1SJuzuQZF6RZYO5jSDvCFRXOCyLTyjY
G+mn1RKvS8YbXIMeuUXHJHEbqgEJBg0PURKFo6O/Q+d5urjzc0oUcEywXsIrzehn
PaXiFQ7Ga34VjakbfKLaRNA4KXLCuk1pSTxCJyevmFYilJK3pVY=
-----END CERTIFICATE-----
