Certificate:
    Data:
        Version: 1 (0x0)
        Serial Number: 4097 (0x1001)
        Signature Algorithm: sha256WithRSAEncryption
        Issuer: CN=Root-CA
        Validity
            Not Before: Jun  8 14:14:22 2021 GMT
            Not After : Jun  6 14:14:22 2031 GMT
        Subject: C=BG, ST=SF, O=iFAO, CN=keycloak.apps.toc.sofia.ifao.net
        Subject Public Key Info:
            Public Key Algorithm: rsaEncryption
                RSA Public-Key: (2048 bit)
                Modulus:
                    00:a4:64:33:39:ec:4e:0a:ae:48:3d:4a:e8:6d:4e:
                    f4:98:34:d0:ed:b2:e8:af:55:a9:c1:35:82:0e:53:
                    6c:aa:e1:67:ab:55:ef:7c:5a:c2:1b:44:79:ae:66:
                    0e:bc:c3:ca:29:ff:04:6a:a1:00:4e:a4:20:d2:cc:
                    2f:94:d6:b7:92:bd:fe:eb:4b:35:20:e6:ef:e3:60:
                    fa:19:71:52:15:08:74:ed:89:f0:7e:0b:0c:eb:ea:
                    2c:8e:cd:37:cb:70:00:41:c1:bd:84:61:45:03:40:
                    70:b3:c0:df:91:48:52:61:ee:85:40:63:a9:5e:b9:
                    7c:ec:f0:dd:61:06:0a:f1:31:6b:2f:63:d7:cb:7f:
                    c3:84:3a:85:a2:e9:ca:df:e7:81:74:fc:8b:18:25:
                    98:fc:eb:9f:58:15:1c:3a:83:4e:4c:26:89:cd:0f:
                    12:24:ce:42:d9:54:68:f8:ed:c2:85:18:07:e5:bf:
                    36:63:47:1e:78:39:e1:be:c7:7a:3c:10:67:50:e9:
                    65:6b:de:a2:b5:e6:0b:bd:09:fd:0a:07:30:b4:9d:
                    33:78:25:68:70:42:15:1b:73:bd:65:a1:30:71:b0:
                    f9:94:ed:d9:8e:e4:a2:8c:87:22:a8:f3:e9:51:5b:
                    e3:5e:6e:85:68:01:18:9b:81:49:f0:7e:96:38:ff:
                    b9:ab
                Exponent: 65537 (0x10001)
    Signature Algorithm: sha256WithRSAEncryption
         0f:ce:a9:37:ca:a0:70:1e:79:bb:f1:e7:84:e6:0f:9c:19:8e:
         93:92:b1:d3:52:c5:21:42:08:b3:5b:dc:96:64:3f:1b:1e:f2:
         e3:23:74:0d:5b:18:e1:19:8a:eb:a2:e8:69:e2:e2:07:d3:a1:
         78:3e:06:18:16:9e:95:b5:f7:9b:c8:11:08:bf:70:1c:c5:83:
         3a:39:11:dd:4a:24:c8:35:cb:69:11:5b:22:f2:df:b9:ba:42:
         d0:b9:47:02:bb:2a:81:55:18:7c:22:30:3b:8b:42:cd:b3:60:
         31:fe:72:25:aa:d8:b3:e9:12:2d:66:77:8d:b1:3e:62:29:1e:
         b8:75:47:4d:03:34:bb:9e:ae:d4:11:22:5a:55:7d:2b:72:f7:
         6b:82:ac:12:74:dd:1b:1b:81:b0:41:ee:54:ab:a3:41:de:93:
         54:49:fb:a9:61:a2:40:0e:05:91:56:a3:63:c8:6f:61:44:f0:
         d7:5e:ed:ff:81:90:a1:f6:9a:64:0d:1f:38:df:bc:b3:ea:42:
         4d:5d:b4:e2:3b:50:f3:0a:f1:8a:65:30:b7:0a:83:c9:b0:3a:
         20:17:fd:e0:6e:6c:25:3f:3d:f1:1b:fb:0d:b8:7b:41:9d:57:
         97:06:f4:6f:fa:52:aa:f5:54:ec:52:21:58:a9:ce:f7:65:bf:
         70:60:56:d7
-----BEGIN CERTIFICATE-----
MIIC2zCCAcMCAhABMA0GCSqGSIb3DQEBCwUAMBIxEDAOBgNVBAMMB1Jvb3QtQ0Ew
HhcNMjEwNjA4MTQxNDIyWhcNMzEwNjA2MTQxNDIyWjBUMQswCQYDVQQGEwJCRzEL
MAkGA1UECAwCU0YxDTALBgNVBAoMBGlGQU8xKTAnBgNVBAMMIGtleWNsb2FrLmFw
cHMudG9jLnNvZmlhLmlmYW8ubmV0MIIBIjANBgkqhkiG9w0BAQEFAAOCAQ8AMIIB
CgKCAQEApGQzOexOCq5IPUrobU70mDTQ7bLor1WpwTWCDlNsquFnq1XvfFrCG0R5
rmYOvMPKKf8EaqEATqQg0swvlNa3kr3+60s1IObv42D6GXFSFQh07YnwfgsM6+os
js03y3AAQcG9hGFFA0Bws8DfkUhSYe6FQGOpXrl87PDdYQYK8TFrL2PXy3/DhDqF
ounK3+eBdPyLGCWY/OufWBUcOoNOTCaJzQ8SJM5C2VRo+O3ChRgH5b82Y0ceeDnh
vsd6PBBnUOlla96iteYLvQn9CgcwtJ0zeCVocEIVG3O9ZaEwcbD5lO3ZjuSijIci
qPPpUVvjXm6FaAEYm4FJ8H6WOP+5qwIDAQABMA0GCSqGSIb3DQEBCwUAA4IBAQAP
zqk3yqBwHnm78eeE5g+cGY6TkrHTUsUhQgizW9yWZD8bHvLjI3QNWxjhGYrrouhp
4uIH06F4PgYYFp6VtfebyBEIv3AcxYM6ORHdSiTINctpEVsi8t+5ukLQuUcCuyqB
VRh8IjA7i0LNs2Ax/nIlqtiz6RItZneNsT5iKR64dUdNAzS7nq7UESJaVX0rcvdr
gqwSdN0bG4GwQe5Uq6NB3pNUSfupYaJADgWRVqNjyG9hRPDXXu3/gZCh9ppkDR84
37yz6kJNXbTiO1DzCvGKZTC3CoPJsDogF/3gbmwlPz3xG/sNuHtBnVeXBvRv+lKq
9VTsUiFYqc73Zb9wYFbX
-----END CERTIFICATE-----
