Certificate:
    Data:
        Version: 1 (0x0)
        Serial Number: 4100 (0x1004)
        Signature Algorithm: sha256WithRSAEncryption
        Issuer: CN=Root-CA
        Validity
            Not Before: Jun  8 14:14:23 2021 GMT
            Not After : Jun  6 14:14:23 2031 GMT
        Subject: C=BG, ST=SF, O=iFAO, CN=ccbd-master.ccbd
        Subject Public Key Info:
            Public Key Algorithm: rsaEncryption
                RSA Public-Key: (2048 bit)
                Modulus:
                    00:e9:d4:7b:50:fd:5e:77:af:fc:10:d4:43:f8:db:
                    f7:d1:bf:c6:8b:cb:4d:38:16:a6:a9:b6:2e:1f:76:
                    bb:74:73:b2:60:49:ed:91:d1:ef:0a:72:76:0c:79:
                    19:fa:24:54:d9:55:ae:f3:bc:b2:57:36:77:b6:0b:
                    47:9b:07:cb:3d:0c:dc:c2:c5:a0:70:45:bc:40:a4:
                    f4:94:5c:50:86:3c:29:a3:62:3c:19:f8:7a:d3:85:
                    a9:af:1f:79:ad:ed:43:eb:c9:e8:12:13:15:e8:03:
                    8a:80:3c:b4:77:d8:7b:c3:2f:42:2f:c4:b1:3d:54:
                    c7:fd:c6:11:67:e1:c0:53:1e:6d:95:2c:9e:02:f2:
                    9c:4d:c1:0f:50:06:0e:f9:f7:ca:79:f2:10:2c:b2:
                    2a:05:65:9f:c1:1e:34:25:76:14:2d:95:72:93:19:
                    81:ef:75:87:4f:45:3f:1e:e0:e3:17:1f:7f:67:d3:
                    f7:ad:df:5b:01:8e:3f:0b:dc:9a:ca:64:cb:d0:81:
                    1e:84:ab:48:11:74:59:4f:00:df:bf:c6:f6:29:d3:
                    c0:a7:e0:38:d1:f3:0f:44:a8:c1:23:4e:f0:17:84:
                    19:33:05:db:f5:ba:f0:d1:00:d2:61:e3:76:13:98:
                    c0:c5:e0:db:0c:9d:58:5f:5a:d1:50:c6:9a:55:f8:
                    f5:5b
                Exponent: 65537 (0x10001)
    Signature Algorithm: sha256WithRSAEncryption
         a0:14:10:f8:bd:78:83:01:1f:f3:37:07:ba:ad:fc:25:b4:64:
         40:be:fd:f4:99:38:9c:be:5a:96:db:e7:a9:82:47:09:a2:b8:
         0f:1d:89:b5:40:6b:58:ba:38:7d:b9:8f:6b:05:2d:35:0b:0a:
         0e:9d:91:e4:0e:91:0e:69:20:ea:57:77:e8:7c:2b:dc:e8:21:
         c9:cc:83:c3:f4:a1:ae:7a:60:65:21:85:a0:aa:6e:6a:61:b2:
         23:4c:f7:6c:45:c3:8a:5d:0d:22:2c:54:10:78:36:ff:6c:b6:
         bc:2d:b7:c8:95:bf:e3:c6:26:c9:b5:8d:c0:19:69:80:f1:40:
         51:55:f9:80:d5:e6:8d:97:ce:94:75:7a:81:5f:33:47:bd:2a:
         ea:01:43:da:d5:ee:24:e6:fa:62:f9:5f:ea:43:26:6d:4f:2e:
         df:39:79:a7:33:c0:91:48:8f:7b:6f:4b:67:4b:0e:b3:cf:03:
         c7:0b:47:95:c9:01:d3:bc:ed:9d:00:d5:1e:98:27:bf:8d:aa:
         a1:f6:91:19:5a:cf:ab:1f:20:b6:17:32:77:c4:11:6f:f5:4d:
         c5:f0:7a:5d:ce:60:a4:35:2a:24:ee:4f:e4:e5:ed:56:23:7f:
         c3:cb:9e:d0:53:1b:9a:7f:37:4a:ca:33:67:88:07:1c:10:fd:
         5f:40:40:2a
-----BEGIN CERTIFICATE-----
MIICyzCCAbMCAhAEMA0GCSqGSIb3DQEBCwUAMBIxEDAOBgNVBAMMB1Jvb3QtQ0Ew
HhcNMjEwNjA4MTQxNDIzWhcNMzEwNjA2MTQxNDIzWjBEMQswCQYDVQQGEwJCRzEL
MAkGA1UECAwCU0YxDTALBgNVBAoMBGlGQU8xGTAXBgNVBAMMEGNjYmQtbWFzdGVy
LmNjYmQwggEiMA0GCSqGSIb3DQEBAQUAA4IBDwAwggEKAoIBAQDp1HtQ/V53r/wQ
1EP42/fRv8aLy004Fqapti4fdrt0c7JgSe2R0e8KcnYMeRn6JFTZVa7zvLJXNne2
C0ebB8s9DNzCxaBwRbxApPSUXFCGPCmjYjwZ+HrThamvH3mt7UPryegSExXoA4qA
PLR32HvDL0IvxLE9VMf9xhFn4cBTHm2VLJ4C8pxNwQ9QBg7598p58hAssioFZZ/B
HjQldhQtlXKTGYHvdYdPRT8e4OMXH39n0/et31sBjj8L3JrKZMvQgR6Eq0gRdFlP
AN+/xvYp08Cn4DjR8w9EqMEjTvAXhBkzBdv1uvDRANJh43YTmMDF4NsMnVhfWtFQ
xppV+PVbAgMBAAEwDQYJKoZIhvcNAQELBQADggEBAKAUEPi9eIMBH/M3B7qt/CW0
ZEC+/fSZOJy+Wpbb56mCRwmiuA8dibVAa1i6OH25j2sFLTULCg6dkeQOkQ5pIOpX
d+h8K9zoIcnMg8P0oa56YGUhhaCqbmphsiNM92xFw4pdDSIsVBB4Nv9strwtt8iV
v+PGJsm1jcAZaYDxQFFV+YDV5o2XzpR1eoFfM0e9KuoBQ9rV7iTm+mL5X+pDJm1P
Lt85eaczwJFIj3tvS2dLDrPPA8cLR5XJAdO87Z0A1R6YJ7+NqqH2kRlaz6sfILYX
MnfEEW/1TcXwel3OYKQ1KiTuT+Tl7VYjf8PLntBTG5p/N0rKM2eIBxwQ/V9AQCo=
-----END CERTIFICATE-----
